; Function Attrs: cold nounwind optsize uwtable
define internal fastcc void @free_duplicate_context(ptr noundef %0) unnamed_addr #2 {
  %.not = icmp eq ptr %0, null
  br i1 %.not, label %10, label %2

2:                                                ; preds = %1
  %3 = getelementptr inbounds nuw i8, ptr %0, i64 1440
  tail call void @av_freep(ptr noundef nonnull %3) #12
  %4 = getelementptr inbounds nuw i8, ptr %0, i64 1456
  tail call void @av_freep(ptr noundef nonnull %4) #12
  %5 = getelementptr inbounds nuw i8, ptr %0, i64 1448
  store ptr null, ptr %5, align 8, !tbaa !139
  %6 = getelementptr inbounds nuw i8, ptr %0, i64 1464
  store i32 0, ptr %6, align 8, !tbaa !140
  %7 = getelementptr inbounds nuw i8, ptr %0, i64 4296
  tail call void @av_freep(ptr noundef nonnull %7) #12
  %8 = getelementptr inbounds nuw i8, ptr %0, i64 1368
  tail call void @av_freep(ptr noundef nonnull %8) #12
  %9 = getelementptr inbounds nuw i8, ptr %0, i64 4288
  store ptr null, ptr %9, align 8, !tbaa !52
  br label %10

10:                                               ; preds = %1, %2
  ret void
}